; Function Attrs: mustprogress nounwind uwtable
define dso_local void @_ZN5clang6driver6Action20propagateOffloadInfoEPKS1_(ptr noundef nonnull align 8 dereferenceable(88) %0, ptr nocapture noundef readonly %1) local_unnamed_addr #0 align 2 {
  %3 = getelementptr inbounds nuw i8, ptr %1, i64 60
  %4 = load i32, ptr %3, align 4
  %.not = icmp eq i32 %4, 0
  br i1 %.not, label %8, label %5

5:                                                ; preds = %2
  %6 = getelementptr inbounds nuw i8, ptr %1, i64 72
  %7 = load ptr, ptr %6, align 8
  tail call void @_ZN5clang6driver6Action24propagateHostOffloadInfoEjPKc(ptr noundef nonnull align 8 dereferenceable(88) %0, i32 noundef %4, ptr noundef %7)
  br label %15

8:                                                ; preds = %2
  %9 = getelementptr inbounds nuw i8, ptr %1, i64 64
  %10 = load i32, ptr %9, align 8
  %11 = getelementptr inbounds nuw i8, ptr %1, i64 72
  %12 = load ptr, ptr %11, align 8
  %13 = getelementptr inbounds nuw i8, ptr %1, i64 80
  %14 = load ptr, ptr %13, align 8
  tail call void @_ZN5clang6driver6Action26propagateDeviceOffloadInfoENS1_11OffloadKindEPKcPKNS0_9ToolChainE(ptr noundef nonnull align 8 dereferenceable(88) %0, i32 noundef %10, ptr noundef %12, ptr noundef %14)
  br label %15

15:                                               ; preds = %8, %5
  ret void
}